
KuartisHomework.elf:     file format elf32-avr

Sections:
Idx Name          Size      VMA       LMA       File off  Algn
  0 .data         00000000  00803c00  00803c00  00000544  2**0
                  CONTENTS, ALLOC, LOAD, DATA
  1 .text         000004d0  00000000  00000000  00000074  2**1
                  CONTENTS, ALLOC, LOAD, READONLY, CODE
  2 .bss          00000017  00803c00  00803c00  00000544  2**0
                  ALLOC
  3 .comment      00000030  00000000  00000000  00000544  2**0
                  CONTENTS, READONLY
  4 .note.gnu.avr.deviceinfo 0000003c  00000000  00000000  00000574  2**2
                  CONTENTS, READONLY
  5 .debug_aranges 00000078  00000000  00000000  000005b0  2**0
                  CONTENTS, READONLY, DEBUGGING
  6 .debug_info   0000311c  00000000  00000000  00000628  2**0
                  CONTENTS, READONLY, DEBUGGING
  7 .debug_abbrev 00002301  00000000  00000000  00003744  2**0
                  CONTENTS, READONLY, DEBUGGING
  8 .debug_line   00000865  00000000  00000000  00005a45  2**0
                  CONTENTS, READONLY, DEBUGGING
  9 .debug_frame  00000148  00000000  00000000  000062ac  2**2
                  CONTENTS, READONLY, DEBUGGING
 10 .debug_str    000016aa  00000000  00000000  000063f4  2**0
                  CONTENTS, READONLY, DEBUGGING
 11 .debug_loc    000004bb  00000000  00000000  00007a9e  2**0
                  CONTENTS, READONLY, DEBUGGING
 12 .debug_ranges 00000068  00000000  00000000  00007f59  2**0
                  CONTENTS, READONLY, DEBUGGING

Disassembly of section .text:

00000000 <__vectors>:
   0:	0c 94 48 00 	jmp	0x90	; 0x90 <__ctors_end>
   4:	0c 94 58 00 	jmp	0xb0	; 0xb0 <__bad_interrupt>
   8:	0c 94 58 00 	jmp	0xb0	; 0xb0 <__bad_interrupt>
   c:	0c 94 0a 02 	jmp	0x414	; 0x414 <__vector_3>
  10:	0c 94 58 00 	jmp	0xb0	; 0xb0 <__bad_interrupt>
  14:	0c 94 58 00 	jmp	0xb0	; 0xb0 <__bad_interrupt>
  18:	0c 94 e4 01 	jmp	0x3c8	; 0x3c8 <__vector_6>
  1c:	0c 94 58 00 	jmp	0xb0	; 0xb0 <__bad_interrupt>
  20:	0c 94 58 00 	jmp	0xb0	; 0xb0 <__bad_interrupt>
  24:	0c 94 58 00 	jmp	0xb0	; 0xb0 <__bad_interrupt>
  28:	0c 94 58 00 	jmp	0xb0	; 0xb0 <__bad_interrupt>
  2c:	0c 94 58 00 	jmp	0xb0	; 0xb0 <__bad_interrupt>
  30:	0c 94 58 00 	jmp	0xb0	; 0xb0 <__bad_interrupt>
  34:	0c 94 58 00 	jmp	0xb0	; 0xb0 <__bad_interrupt>
  38:	0c 94 58 00 	jmp	0xb0	; 0xb0 <__bad_interrupt>
  3c:	0c 94 58 00 	jmp	0xb0	; 0xb0 <__bad_interrupt>
  40:	0c 94 58 00 	jmp	0xb0	; 0xb0 <__bad_interrupt>
  44:	0c 94 58 00 	jmp	0xb0	; 0xb0 <__bad_interrupt>
  48:	0c 94 58 00 	jmp	0xb0	; 0xb0 <__bad_interrupt>
  4c:	0c 94 58 00 	jmp	0xb0	; 0xb0 <__bad_interrupt>
  50:	0c 94 58 00 	jmp	0xb0	; 0xb0 <__bad_interrupt>
  54:	0c 94 58 00 	jmp	0xb0	; 0xb0 <__bad_interrupt>
  58:	0c 94 58 00 	jmp	0xb0	; 0xb0 <__bad_interrupt>
  5c:	0c 94 58 00 	jmp	0xb0	; 0xb0 <__bad_interrupt>
  60:	0c 94 58 00 	jmp	0xb0	; 0xb0 <__bad_interrupt>
  64:	0c 94 58 00 	jmp	0xb0	; 0xb0 <__bad_interrupt>
  68:	0c 94 58 00 	jmp	0xb0	; 0xb0 <__bad_interrupt>
  6c:	0c 94 58 00 	jmp	0xb0	; 0xb0 <__bad_interrupt>
  70:	0c 94 58 00 	jmp	0xb0	; 0xb0 <__bad_interrupt>
  74:	0c 94 58 00 	jmp	0xb0	; 0xb0 <__bad_interrupt>
  78:	0c 94 58 00 	jmp	0xb0	; 0xb0 <__bad_interrupt>
  7c:	0c 94 58 00 	jmp	0xb0	; 0xb0 <__bad_interrupt>
  80:	0c 94 58 00 	jmp	0xb0	; 0xb0 <__bad_interrupt>
  84:	0c 94 58 00 	jmp	0xb0	; 0xb0 <__bad_interrupt>
  88:	0c 94 58 00 	jmp	0xb0	; 0xb0 <__bad_interrupt>
  8c:	0c 94 58 00 	jmp	0xb0	; 0xb0 <__bad_interrupt>

00000090 <__ctors_end>:
  90:	11 24       	eor	r1, r1
  92:	1f be       	out	0x3f, r1	; 63
  94:	cf ef       	ldi	r28, 0xFF	; 255
  96:	cd bf       	out	0x3d, r28	; 61
  98:	df e3       	ldi	r29, 0x3F	; 63
  9a:	de bf       	out	0x3e, r29	; 62

0000009c <__do_clear_bss>:
  9c:	2c e3       	ldi	r18, 0x3C	; 60
  9e:	a0 e0       	ldi	r26, 0x00	; 0
  a0:	bc e3       	ldi	r27, 0x3C	; 60
  a2:	01 c0       	rjmp	.+2      	; 0xa6 <.do_clear_bss_start>

000000a4 <.do_clear_bss_loop>:
  a4:	1d 92       	st	X+, r1

000000a6 <.do_clear_bss_start>:
  a6:	a7 31       	cpi	r26, 0x17	; 23
  a8:	b2 07       	cpc	r27, r18
  aa:	e1 f7       	brne	.-8      	; 0xa4 <.do_clear_bss_loop>
  ac:	79 d1       	rcall	.+754    	; 0x3a0 <main>
  ae:	0e c2       	rjmp	.+1052   	; 0x4cc <_exit>

000000b0 <__bad_interrupt>:
  b0:	a7 cf       	rjmp	.-178    	; 0x0 <__vectors>

000000b2 <Initialize>:
	//Press power button
	InputState.currentState = POWER;
	WriteInput();
	setState(); // OFF
	_delay_ms(1000);
  b2:	78 94       	sei
  b4:	e0 e0       	ldi	r30, 0x00	; 0
  b6:	f4 e0       	ldi	r31, 0x04	; 4
  b8:	87 e2       	ldi	r24, 0x27	; 39
  ba:	80 83       	st	Z, r24
  bc:	8f ef       	ldi	r24, 0xFF	; 255
  be:	84 83       	std	Z+4, r24	; 0x04
  c0:	a0 e6       	ldi	r26, 0x60	; 96
  c2:	b4 e0       	ldi	r27, 0x04	; 4
  c4:	84 e7       	ldi	r24, 0x74	; 116
  c6:	8c 93       	st	X, r24
  c8:	14 96       	adiw	r26, 0x04	; 4
  ca:	1c 92       	st	X, r1
  cc:	14 97       	sbiw	r26, 0x04	; 4
  ce:	8c 91       	ld	r24, X
  d0:	80 68       	ori	r24, 0x80	; 128
  d2:	8c 93       	st	X, r24
  d4:	14 96       	adiw	r26, 0x04	; 4
  d6:	8c 91       	ld	r24, X
  d8:	14 97       	sbiw	r26, 0x04	; 4
  da:	8f 77       	andi	r24, 0x7F	; 127
  dc:	14 96       	adiw	r26, 0x04	; 4
  de:	8c 93       	st	X, r24
  e0:	80 81       	ld	r24, Z
  e2:	87 7f       	andi	r24, 0xF7	; 247
  e4:	80 83       	st	Z, r24
  e6:	83 89       	ldd	r24, Z+19	; 0x13
  e8:	83 60       	ori	r24, 0x03	; 3
  ea:	83 8b       	std	Z+19, r24	; 0x13
  ec:	8f b7       	in	r24, 0x3f	; 63
  ee:	80 68       	ori	r24, 0x80	; 128
  f0:	8f bf       	out	0x3f, r24	; 63
  f2:	78 94       	sei
  f4:	10 92 15 3c 	sts	0x3C15, r1	; 0x803c15 <State>
  f8:	10 92 10 3c 	sts	0x3C10, r1	; 0x803c10 <LightState>
  fc:	10 92 16 3c 	sts	0x3C16, r1	; 0x803c16 <NECState>
 100:	10 92 47 01 	sts	0x0147, r1	; 0x800147 <__RODATA_PM_OFFSET__+0x7fc147>
 104:	80 91 41 01 	lds	r24, 0x0141	; 0x800141 <__RODATA_PM_OFFSET__+0x7fc141>
 108:	81 11       	cpse	r24, r1
 10a:	fc cf       	rjmp	.-8      	; 0x104 <__EEPROM_REGION_LENGTH__+0x4>
 10c:	e0 e4       	ldi	r30, 0x40	; 64
 10e:	f1 e0       	ldi	r31, 0x01	; 1
 110:	84 e0       	ldi	r24, 0x04	; 4
 112:	90 e0       	ldi	r25, 0x00	; 0
 114:	82 87       	std	Z+10, r24	; 0x0a
 116:	93 87       	std	Z+11, r25	; 0x0b
 118:	82 81       	ldd	r24, Z+2	; 0x02
 11a:	81 60       	ori	r24, 0x01	; 1
 11c:	82 83       	std	Z+2, r24	; 0x02
 11e:	81 e8       	ldi	r24, 0x81	; 129
 120:	80 83       	st	Z, r24
 122:	08 95       	ret

00000124 <disableIR_ISR>:
 124:	e0 e0       	ldi	r30, 0x00	; 0
 126:	f4 e0       	ldi	r31, 0x04	; 4
 128:	83 89       	ldd	r24, Z+19	; 0x13
 12a:	13 8a       	std	Z+19, r1	; 0x13
 12c:	08 95       	ret

0000012e <disableRTC>:
 12e:	e0 e4       	ldi	r30, 0x40	; 64
 130:	f1 e0       	ldi	r31, 0x01	; 1
 132:	10 86       	std	Z+8, r1	; 0x08
 134:	11 86       	std	Z+9, r1	; 0x09
 136:	82 81       	ldd	r24, Z+2	; 0x02
 138:	8e 7f       	andi	r24, 0xFE	; 254
 13a:	82 83       	std	Z+2, r24	; 0x02
 13c:	10 92 06 3c 	sts	0x3C06, r1	; 0x803c06 <tick_counter>
 140:	10 92 07 3c 	sts	0x3C07, r1	; 0x803c07 <tick_counter+0x1>
 144:	08 95       	ret

00000146 <enableRTC>:
 146:	e0 e4       	ldi	r30, 0x40	; 64
 148:	f1 e0       	ldi	r31, 0x01	; 1
 14a:	82 81       	ldd	r24, Z+2	; 0x02
 14c:	81 60       	ori	r24, 0x01	; 1
 14e:	82 83       	std	Z+2, r24	; 0x02
 150:	08 95       	ret

00000152 <IR_Read>:
 152:	80 91 16 3c 	lds	r24, 0x3C16	; 0x803c16 <NECState>
 156:	82 30       	cpi	r24, 0x02	; 2
 158:	21 f0       	breq	.+8      	; 0x162 <IR_Read+0x10>
 15a:	83 30       	cpi	r24, 0x03	; 3
 15c:	09 f4       	brne	.+2      	; 0x160 <IR_Read+0xe>
 15e:	17 c1       	rjmp	.+558    	; 0x38e <IR_Read+0x23c>
 160:	08 95       	ret
 162:	81 e0       	ldi	r24, 0x01	; 1
 164:	90 e0       	ldi	r25, 0x00	; 0
 166:	80 93 0a 3c 	sts	0x3C0A, r24	; 0x803c0a <idle_flag>
 16a:	90 93 0b 3c 	sts	0x3C0B, r25	; 0x803c0b <idle_flag+0x1>
 16e:	f8 94       	cli
 170:	10 92 48 01 	sts	0x0148, r1	; 0x800148 <__RODATA_PM_OFFSET__+0x7fc148>
 174:	10 92 49 01 	sts	0x0149, r1	; 0x800149 <__RODATA_PM_OFFSET__+0x7fc149>
 178:	78 94       	sei
 17a:	d4 df       	rcall	.-88     	; 0x124 <disableIR_ISR>
 17c:	80 91 08 04 	lds	r24, 0x0408	; 0x800408 <__RODATA_PM_OFFSET__+0x7fc408>
 180:	83 fd       	sbrc	r24, 3
 182:	10 c0       	rjmp	.+32     	; 0x1a4 <IR_Read+0x52>
 184:	20 91 0c 3c 	lds	r18, 0x3C0C	; 0x803c0c <counter>
 188:	30 91 0d 3c 	lds	r19, 0x3C0D	; 0x803c0d <counter+0x1>
 18c:	40 91 0e 3c 	lds	r20, 0x3C0E	; 0x803c0e <counter+0x2>
 190:	50 91 0f 3c 	lds	r21, 0x3C0F	; 0x803c0f <counter+0x3>
 194:	aa e7       	ldi	r26, 0x7A	; 122
 196:	b0 e0       	ldi	r27, 0x00	; 0
 198:	83 d1       	rcall	.+774    	; 0x4a0 <__muluhisi3>
 19a:	69 32       	cpi	r22, 0x29	; 41
 19c:	73 42       	sbci	r23, 0x23	; 35
 19e:	81 05       	cpc	r24, r1
 1a0:	91 05       	cpc	r25, r1
 1a2:	64 f3       	brlt	.-40     	; 0x17c <IR_Read+0x2a>
 1a4:	f8 94       	cli
 1a6:	10 92 48 01 	sts	0x0148, r1	; 0x800148 <__RODATA_PM_OFFSET__+0x7fc148>
 1aa:	10 92 49 01 	sts	0x0149, r1	; 0x800149 <__RODATA_PM_OFFSET__+0x7fc149>
 1ae:	78 94       	sei
 1b0:	10 92 0c 3c 	sts	0x3C0C, r1	; 0x803c0c <counter>
 1b4:	10 92 0d 3c 	sts	0x3C0D, r1	; 0x803c0d <counter+0x1>
 1b8:	10 92 0e 3c 	sts	0x3C0E, r1	; 0x803c0e <counter+0x2>
 1bc:	10 92 0f 3c 	sts	0x3C0F, r1	; 0x803c0f <counter+0x3>
 1c0:	80 91 08 04 	lds	r24, 0x0408	; 0x800408 <__RODATA_PM_OFFSET__+0x7fc408>
 1c4:	83 ff       	sbrs	r24, 3
 1c6:	10 c0       	rjmp	.+32     	; 0x1e8 <IR_Read+0x96>
 1c8:	20 91 0c 3c 	lds	r18, 0x3C0C	; 0x803c0c <counter>
 1cc:	30 91 0d 3c 	lds	r19, 0x3C0D	; 0x803c0d <counter+0x1>
 1d0:	40 91 0e 3c 	lds	r20, 0x3C0E	; 0x803c0e <counter+0x2>
 1d4:	50 91 0f 3c 	lds	r21, 0x3C0F	; 0x803c0f <counter+0x3>
 1d8:	aa e7       	ldi	r26, 0x7A	; 122
 1da:	b0 e0       	ldi	r27, 0x00	; 0
 1dc:	61 d1       	rcall	.+706    	; 0x4a0 <__muluhisi3>
 1de:	65 39       	cpi	r22, 0x95	; 149
 1e0:	71 41       	sbci	r23, 0x11	; 17
 1e2:	81 05       	cpc	r24, r1
 1e4:	91 05       	cpc	r25, r1
 1e6:	64 f3       	brlt	.-40     	; 0x1c0 <IR_Read+0x6e>
 1e8:	10 92 0c 3c 	sts	0x3C0C, r1	; 0x803c0c <counter>
 1ec:	10 92 0d 3c 	sts	0x3C0D, r1	; 0x803c0d <counter+0x1>
 1f0:	10 92 0e 3c 	sts	0x3C0E, r1	; 0x803c0e <counter+0x2>
 1f4:	10 92 0f 3c 	sts	0x3C0F, r1	; 0x803c0f <counter+0x3>
 1f8:	f8 94       	cli
 1fa:	10 92 48 01 	sts	0x0148, r1	; 0x800148 <__RODATA_PM_OFFSET__+0x7fc148>
 1fe:	10 92 49 01 	sts	0x0149, r1	; 0x800149 <__RODATA_PM_OFFSET__+0x7fc149>
 202:	78 94       	sei
 204:	10 92 0c 3c 	sts	0x3C0C, r1	; 0x803c0c <counter>
 208:	10 92 0d 3c 	sts	0x3C0D, r1	; 0x803c0d <counter+0x1>
 20c:	10 92 0e 3c 	sts	0x3C0E, r1	; 0x803c0e <counter+0x2>
 210:	10 92 0f 3c 	sts	0x3C0F, r1	; 0x803c0f <counter+0x3>
 214:	10 92 0a 3c 	sts	0x3C0A, r1	; 0x803c0a <idle_flag>
 218:	10 92 0b 3c 	sts	0x3C0B, r1	; 0x803c0b <idle_flag+0x1>
 21c:	81 e0       	ldi	r24, 0x01	; 1
 21e:	90 e0       	ldi	r25, 0x00	; 0
 220:	80 93 08 3c 	sts	0x3C08, r24	; 0x803c08 <command_counter_flag>
 224:	90 93 09 3c 	sts	0x3C09, r25	; 0x803c09 <command_counter_flag+0x1>
 228:	10 92 13 3c 	sts	0x3C13, r1	; 0x803c13 <i>
 22c:	10 92 14 3c 	sts	0x3C14, r1	; 0x803c14 <i+0x1>
 230:	92 c0       	rjmp	.+292    	; 0x356 <IR_Read+0x204>
 232:	10 92 06 3c 	sts	0x3C06, r1	; 0x803c06 <tick_counter>
 236:	10 92 07 3c 	sts	0x3C07, r1	; 0x803c07 <tick_counter+0x1>
 23a:	80 91 08 04 	lds	r24, 0x0408	; 0x800408 <__RODATA_PM_OFFSET__+0x7fc408>
 23e:	83 fd       	sbrc	r24, 3
 240:	0d c0       	rjmp	.+26     	; 0x25c <IR_Read+0x10a>
 242:	20 91 06 3c 	lds	r18, 0x3C06	; 0x803c06 <tick_counter>
 246:	30 91 07 3c 	lds	r19, 0x3C07	; 0x803c07 <tick_counter+0x1>
 24a:	4a e7       	ldi	r20, 0x7A	; 122
 24c:	42 9f       	mul	r20, r18
 24e:	c0 01       	movw	r24, r0
 250:	43 9f       	mul	r20, r19
 252:	90 0d       	add	r25, r0
 254:	11 24       	eor	r1, r1
 256:	8b 38       	cpi	r24, 0x8B	; 139
 258:	92 40       	sbci	r25, 0x02	; 2
 25a:	7c f3       	brlt	.-34     	; 0x23a <IR_Read+0xe8>
 25c:	10 92 06 3c 	sts	0x3C06, r1	; 0x803c06 <tick_counter>
 260:	10 92 07 3c 	sts	0x3C07, r1	; 0x803c07 <tick_counter+0x1>
 264:	64 df       	rcall	.-312    	; 0x12e <disableRTC>
 266:	6f df       	rcall	.-290    	; 0x146 <enableRTC>
 268:	80 91 08 04 	lds	r24, 0x0408	; 0x800408 <__RODATA_PM_OFFSET__+0x7fc408>
 26c:	83 ff       	sbrs	r24, 3
 26e:	0d c0       	rjmp	.+26     	; 0x28a <IR_Read+0x138>
 270:	20 91 06 3c 	lds	r18, 0x3C06	; 0x803c06 <tick_counter>
 274:	30 91 07 3c 	lds	r19, 0x3C07	; 0x803c07 <tick_counter+0x1>
 278:	4a e7       	ldi	r20, 0x7A	; 122
 27a:	42 9f       	mul	r20, r18
 27c:	c0 01       	movw	r24, r0
 27e:	43 9f       	mul	r20, r19
 280:	90 0d       	add	r25, r0
 282:	11 24       	eor	r1, r1
 284:	89 30       	cpi	r24, 0x09	; 9
 286:	97 40       	sbci	r25, 0x07	; 7
 288:	7c f3       	brlt	.-34     	; 0x268 <IR_Read+0x116>
 28a:	20 91 06 3c 	lds	r18, 0x3C06	; 0x803c06 <tick_counter>
 28e:	30 91 07 3c 	lds	r19, 0x3C07	; 0x803c07 <tick_counter+0x1>
 292:	4a e7       	ldi	r20, 0x7A	; 122
 294:	42 9f       	mul	r20, r18
 296:	c0 01       	movw	r24, r0
 298:	43 9f       	mul	r20, r19
 29a:	90 0d       	add	r25, r0
 29c:	11 24       	eor	r1, r1
 29e:	89 3e       	cpi	r24, 0xE9	; 233
 2a0:	93 40       	sbci	r25, 0x03	; 3
 2a2:	74 f1       	brlt	.+92     	; 0x300 <IR_Read+0x1ae>
 2a4:	80 91 00 3c 	lds	r24, 0x3C00	; 0x803c00 <__DATA_REGION_ORIGIN__>
 2a8:	90 91 01 3c 	lds	r25, 0x3C01	; 0x803c01 <__DATA_REGION_ORIGIN__+0x1>
 2ac:	a0 91 02 3c 	lds	r26, 0x3C02	; 0x803c02 <__DATA_REGION_ORIGIN__+0x2>
 2b0:	b0 91 03 3c 	lds	r27, 0x3C03	; 0x803c03 <__DATA_REGION_ORIGIN__+0x3>
 2b4:	88 0f       	add	r24, r24
 2b6:	99 1f       	adc	r25, r25
 2b8:	aa 1f       	adc	r26, r26
 2ba:	bb 1f       	adc	r27, r27
 2bc:	80 93 00 3c 	sts	0x3C00, r24	; 0x803c00 <__DATA_REGION_ORIGIN__>
 2c0:	90 93 01 3c 	sts	0x3C01, r25	; 0x803c01 <__DATA_REGION_ORIGIN__+0x1>
 2c4:	a0 93 02 3c 	sts	0x3C02, r26	; 0x803c02 <__DATA_REGION_ORIGIN__+0x2>
 2c8:	b0 93 03 3c 	sts	0x3C03, r27	; 0x803c03 <__DATA_REGION_ORIGIN__+0x3>
 2cc:	80 91 00 3c 	lds	r24, 0x3C00	; 0x803c00 <__DATA_REGION_ORIGIN__>
 2d0:	90 91 01 3c 	lds	r25, 0x3C01	; 0x803c01 <__DATA_REGION_ORIGIN__+0x1>
 2d4:	a0 91 02 3c 	lds	r26, 0x3C02	; 0x803c02 <__DATA_REGION_ORIGIN__+0x2>
 2d8:	b0 91 03 3c 	lds	r27, 0x3C03	; 0x803c03 <__DATA_REGION_ORIGIN__+0x3>
 2dc:	81 60       	ori	r24, 0x01	; 1
 2de:	80 93 00 3c 	sts	0x3C00, r24	; 0x803c00 <__DATA_REGION_ORIGIN__>
 2e2:	90 93 01 3c 	sts	0x3C01, r25	; 0x803c01 <__DATA_REGION_ORIGIN__+0x1>
 2e6:	a0 93 02 3c 	sts	0x3C02, r26	; 0x803c02 <__DATA_REGION_ORIGIN__+0x2>
 2ea:	b0 93 03 3c 	sts	0x3C03, r27	; 0x803c03 <__DATA_REGION_ORIGIN__+0x3>
 2ee:	80 91 06 3c 	lds	r24, 0x3C06	; 0x803c06 <tick_counter>
 2f2:	90 91 07 3c 	lds	r25, 0x3C07	; 0x803c07 <tick_counter+0x1>
 2f6:	80 93 06 3c 	sts	0x3C06, r24	; 0x803c06 <tick_counter>
 2fa:	90 93 07 3c 	sts	0x3C07, r25	; 0x803c07 <tick_counter+0x1>
 2fe:	1c c0       	rjmp	.+56     	; 0x338 <IR_Read+0x1e6>
 300:	80 91 00 3c 	lds	r24, 0x3C00	; 0x803c00 <__DATA_REGION_ORIGIN__>
 304:	90 91 01 3c 	lds	r25, 0x3C01	; 0x803c01 <__DATA_REGION_ORIGIN__+0x1>
 308:	a0 91 02 3c 	lds	r26, 0x3C02	; 0x803c02 <__DATA_REGION_ORIGIN__+0x2>
 30c:	b0 91 03 3c 	lds	r27, 0x3C03	; 0x803c03 <__DATA_REGION_ORIGIN__+0x3>
 310:	88 0f       	add	r24, r24
 312:	99 1f       	adc	r25, r25
 314:	aa 1f       	adc	r26, r26
 316:	bb 1f       	adc	r27, r27
 318:	80 93 00 3c 	sts	0x3C00, r24	; 0x803c00 <__DATA_REGION_ORIGIN__>
 31c:	90 93 01 3c 	sts	0x3C01, r25	; 0x803c01 <__DATA_REGION_ORIGIN__+0x1>
 320:	a0 93 02 3c 	sts	0x3C02, r26	; 0x803c02 <__DATA_REGION_ORIGIN__+0x2>
 324:	b0 93 03 3c 	sts	0x3C03, r27	; 0x803c03 <__DATA_REGION_ORIGIN__+0x3>
 328:	80 91 06 3c 	lds	r24, 0x3C06	; 0x803c06 <tick_counter>
 32c:	90 91 07 3c 	lds	r25, 0x3C07	; 0x803c07 <tick_counter+0x1>
 330:	80 93 06 3c 	sts	0x3C06, r24	; 0x803c06 <tick_counter>
 334:	90 93 07 3c 	sts	0x3C07, r25	; 0x803c07 <tick_counter+0x1>
 338:	f8 94       	cli
 33a:	10 92 48 01 	sts	0x0148, r1	; 0x800148 <__RODATA_PM_OFFSET__+0x7fc148>
 33e:	10 92 49 01 	sts	0x0149, r1	; 0x800149 <__RODATA_PM_OFFSET__+0x7fc149>
 342:	78 94       	sei
 344:	80 91 13 3c 	lds	r24, 0x3C13	; 0x803c13 <i>
 348:	90 91 14 3c 	lds	r25, 0x3C14	; 0x803c14 <i+0x1>
 34c:	01 96       	adiw	r24, 0x01	; 1
 34e:	80 93 13 3c 	sts	0x3C13, r24	; 0x803c13 <i>
 352:	90 93 14 3c 	sts	0x3C14, r25	; 0x803c14 <i+0x1>
 356:	80 91 13 3c 	lds	r24, 0x3C13	; 0x803c13 <i>
 35a:	90 91 14 3c 	lds	r25, 0x3C14	; 0x803c14 <i+0x1>
 35e:	80 97       	sbiw	r24, 0x20	; 32
 360:	0c f4       	brge	.+2      	; 0x364 <IR_Read+0x212>
 362:	67 cf       	rjmp	.-306    	; 0x232 <IR_Read+0xe0>
 364:	80 91 00 3c 	lds	r24, 0x3C00	; 0x803c00 <__DATA_REGION_ORIGIN__>
 368:	90 91 01 3c 	lds	r25, 0x3C01	; 0x803c01 <__DATA_REGION_ORIGIN__+0x1>
 36c:	a0 91 02 3c 	lds	r26, 0x3C02	; 0x803c02 <__DATA_REGION_ORIGIN__+0x2>
 370:	b0 91 03 3c 	lds	r27, 0x3C03	; 0x803c03 <__DATA_REGION_ORIGIN__+0x3>
 374:	88 0f       	add	r24, r24
 376:	99 1f       	adc	r25, r25
 378:	aa 1f       	adc	r26, r26
 37a:	bb 1f       	adc	r27, r27
 37c:	80 93 00 3c 	sts	0x3C00, r24	; 0x803c00 <__DATA_REGION_ORIGIN__>
 380:	90 93 01 3c 	sts	0x3C01, r25	; 0x803c01 <__DATA_REGION_ORIGIN__+0x1>
 384:	a0 93 02 3c 	sts	0x3C02, r26	; 0x803c02 <__DATA_REGION_ORIGIN__+0x2>
 388:	b0 93 03 3c 	sts	0x3C03, r27	; 0x803c03 <__DATA_REGION_ORIGIN__+0x3>
 38c:	08 95       	ret
 38e:	10 92 0c 3c 	sts	0x3C0C, r1	; 0x803c0c <counter>
 392:	10 92 0d 3c 	sts	0x3C0D, r1	; 0x803c0d <counter+0x1>
 396:	10 92 0e 3c 	sts	0x3C0E, r1	; 0x803c0e <counter+0x2>
 39a:	10 92 0f 3c 	sts	0x3C0F, r1	; 0x803c0f <counter+0x3>
 39e:	08 95       	ret

000003a0 <main>:
//Global Variables
int volatile state = 0;
int volatile debug_flag = 0;
int main(void)
{
	CCP = 0xD8;
 3a0:	88 ed       	ldi	r24, 0xD8	; 216
 3a2:	84 bf       	out	0x34, r24	; 52
	CLKCTRL.MCLKLOCK =0x00;
 3a4:	e0 e6       	ldi	r30, 0x60	; 96
 3a6:	f0 e0       	ldi	r31, 0x00	; 0
 3a8:	12 82       	std	Z+2, r1	; 0x02
	CCP = 0xD8;
 3aa:	84 bf       	out	0x34, r24	; 52
    CLKCTRL.MCLKCTRLB = 0;
 3ac:	11 82       	std	Z+1, r1	; 0x01
	CCP = 0xD8;
 3ae:	84 bf       	out	0x34, r24	; 52
	CLKCTRL.MCLKLOCK =0x01;
 3b0:	81 e0       	ldi	r24, 0x01	; 1
 3b2:	82 83       	std	Z+2, r24	; 0x02
	CCP = 0xD8;
	CLKCTRL.MCLKCTRLB = 0x13;
	CCP = 0xD8;
	CLKCTRL.MCLKLOCK =0x01;
	*/
	PORTD.DIR = (1<<LED_ON_OFF);
 3b4:	e0 e6       	ldi	r30, 0x60	; 96
 3b6:	f4 e0       	ldi	r31, 0x04	; 4
 3b8:	82 e0       	ldi	r24, 0x02	; 2
 3ba:	80 83       	st	Z, r24
	PORTD.OUT = 0x00; // Close All LEDs
 3bc:	14 82       	std	Z+4, r1	; 0x04
	Initialize();
 3be:	79 de       	rcall	.-782    	; 0xb2 <Initialize>
	CPUINT.LVL1VEC = RTC_CNT_vect_num;
 3c0:	83 e0       	ldi	r24, 0x03	; 3
 3c2:	80 93 13 01 	sts	0x0113, r24	; 0x800113 <__RODATA_PM_OFFSET__+0x7fc113>
 3c6:	ff cf       	rjmp	.-2      	; 0x3c6 <main+0x26>

000003c8 <__vector_6>:

/************************************************************************/
/* Timer interrupt increases a counter every 1ms.                                                                     */
/************************************************************************/

ISR(PORTA_PORT_vect){
 3c8:	1f 92       	push	r1
 3ca:	0f 92       	push	r0
 3cc:	0f b6       	in	r0, 0x3f	; 63
 3ce:	0f 92       	push	r0
 3d0:	11 24       	eor	r1, r1
 3d2:	2f 93       	push	r18
 3d4:	3f 93       	push	r19
 3d6:	4f 93       	push	r20
 3d8:	5f 93       	push	r21
 3da:	6f 93       	push	r22
 3dc:	7f 93       	push	r23
 3de:	8f 93       	push	r24
 3e0:	9f 93       	push	r25
 3e2:	af 93       	push	r26
 3e4:	bf 93       	push	r27
 3e6:	ef 93       	push	r30
 3e8:	ff 93       	push	r31
	NECState.currentState = COMMAND;
 3ea:	82 e0       	ldi	r24, 0x02	; 2
 3ec:	80 93 16 3c 	sts	0x3C16, r24	; 0x803c16 <NECState>
	IR_Read();
 3f0:	b0 de       	rcall	.-672    	; 0x152 <IR_Read>
	
	 //  disable interrupt 
}
 3f2:	ff 91       	pop	r31
 3f4:	ef 91       	pop	r30
 3f6:	bf 91       	pop	r27
 3f8:	af 91       	pop	r26
 3fa:	9f 91       	pop	r25
 3fc:	8f 91       	pop	r24
 3fe:	7f 91       	pop	r23
 400:	6f 91       	pop	r22
 402:	5f 91       	pop	r21
 404:	4f 91       	pop	r20
 406:	3f 91       	pop	r19
 408:	2f 91       	pop	r18
 40a:	0f 90       	pop	r0
 40c:	0f be       	out	0x3f, r0	; 63
 40e:	0f 90       	pop	r0
 410:	1f 90       	pop	r1
 412:	18 95       	reti

00000414 <__vector_3>:
ISR(RTC_CNT_vect){
 414:	1f 92       	push	r1
 416:	0f 92       	push	r0
 418:	0f b6       	in	r0, 0x3f	; 63
 41a:	0f 92       	push	r0
 41c:	11 24       	eor	r1, r1
 41e:	8f 93       	push	r24
 420:	9f 93       	push	r25
 422:	af 93       	push	r26
 424:	bf 93       	push	r27
	 RTC.INTFLAGS = RTC_OVF_bm;
 426:	81 e0       	ldi	r24, 0x01	; 1
 428:	80 93 43 01 	sts	0x0143, r24	; 0x800143 <__RODATA_PM_OFFSET__+0x7fc143>
	 
	if(idle_flag == 1){
 42c:	80 91 0a 3c 	lds	r24, 0x3C0A	; 0x803c0a <idle_flag>
 430:	90 91 0b 3c 	lds	r25, 0x3C0B	; 0x803c0b <idle_flag+0x1>
 434:	01 97       	sbiw	r24, 0x01	; 1
 436:	99 f4       	brne	.+38     	; 0x45e <__vector_3+0x4a>
		counter++;
 438:	80 91 0c 3c 	lds	r24, 0x3C0C	; 0x803c0c <counter>
 43c:	90 91 0d 3c 	lds	r25, 0x3C0D	; 0x803c0d <counter+0x1>
 440:	a0 91 0e 3c 	lds	r26, 0x3C0E	; 0x803c0e <counter+0x2>
 444:	b0 91 0f 3c 	lds	r27, 0x3C0F	; 0x803c0f <counter+0x3>
 448:	01 96       	adiw	r24, 0x01	; 1
 44a:	a1 1d       	adc	r26, r1
 44c:	b1 1d       	adc	r27, r1
 44e:	80 93 0c 3c 	sts	0x3C0C, r24	; 0x803c0c <counter>
 452:	90 93 0d 3c 	sts	0x3C0D, r25	; 0x803c0d <counter+0x1>
 456:	a0 93 0e 3c 	sts	0x3C0E, r26	; 0x803c0e <counter+0x2>
 45a:	b0 93 0f 3c 	sts	0x3C0F, r27	; 0x803c0f <counter+0x3>
				NECState.currentState = START;
				IR_Read();
					
			}*/
		}
	if(command_counter_flag==1){
 45e:	80 91 08 3c 	lds	r24, 0x3C08	; 0x803c08 <command_counter_flag>
 462:	90 91 09 3c 	lds	r25, 0x3C09	; 0x803c09 <command_counter_flag+0x1>
 466:	01 97       	sbiw	r24, 0x01	; 1
 468:	91 f4       	brne	.+36     	; 0x48e <__vector_3+0x7a>
			
				tick_counter++;
 46a:	80 91 06 3c 	lds	r24, 0x3C06	; 0x803c06 <tick_counter>
 46e:	90 91 07 3c 	lds	r25, 0x3C07	; 0x803c07 <tick_counter+0x1>
 472:	01 96       	adiw	r24, 0x01	; 1
 474:	80 93 06 3c 	sts	0x3C06, r24	; 0x803c06 <tick_counter>
 478:	90 93 07 3c 	sts	0x3C07, r25	; 0x803c07 <tick_counter+0x1>
				total_tick_counter++;
 47c:	80 91 04 3c 	lds	r24, 0x3C04	; 0x803c04 <total_tick_counter>
 480:	90 91 05 3c 	lds	r25, 0x3C05	; 0x803c05 <total_tick_counter+0x1>
 484:	01 96       	adiw	r24, 0x01	; 1
 486:	80 93 04 3c 	sts	0x3C04, r24	; 0x803c04 <total_tick_counter>
 48a:	90 93 05 3c 	sts	0x3C05, r25	; 0x803c05 <total_tick_counter+0x1>
			
		}
	
}
 48e:	bf 91       	pop	r27
 490:	af 91       	pop	r26
 492:	9f 91       	pop	r25
 494:	8f 91       	pop	r24
 496:	0f 90       	pop	r0
 498:	0f be       	out	0x3f, r0	; 63
 49a:	0f 90       	pop	r0
 49c:	1f 90       	pop	r1
 49e:	18 95       	reti

000004a0 <__muluhisi3>:
 4a0:	09 d0       	rcall	.+18     	; 0x4b4 <__umulhisi3>
 4a2:	a5 9f       	mul	r26, r21
 4a4:	90 0d       	add	r25, r0
 4a6:	b4 9f       	mul	r27, r20
 4a8:	90 0d       	add	r25, r0
 4aa:	a4 9f       	mul	r26, r20
 4ac:	80 0d       	add	r24, r0
 4ae:	91 1d       	adc	r25, r1
 4b0:	11 24       	eor	r1, r1
 4b2:	08 95       	ret

000004b4 <__umulhisi3>:
 4b4:	a2 9f       	mul	r26, r18
 4b6:	b0 01       	movw	r22, r0
 4b8:	b3 9f       	mul	r27, r19
 4ba:	c0 01       	movw	r24, r0
 4bc:	a3 9f       	mul	r26, r19
 4be:	01 d0       	rcall	.+2      	; 0x4c2 <__umulhisi3+0xe>
 4c0:	b2 9f       	mul	r27, r18
 4c2:	70 0d       	add	r23, r0
 4c4:	81 1d       	adc	r24, r1
 4c6:	11 24       	eor	r1, r1
 4c8:	91 1d       	adc	r25, r1
 4ca:	08 95       	ret

000004cc <_exit>:
 4cc:	f8 94       	cli

000004ce <__stop_program>:
 4ce:	ff cf       	rjmp	.-2      	; 0x4ce <__stop_program>
